target datalayout = "e-m:e-p270:32:32-p271:32:32-p272:64:64-i64:64-i128:128-f80:128-n8:16:32:64-S128"
target triple = "x86_64-pc-linux-gnu"

%struct.gmx_sparsematrix = type { i8, i32, ptr, ptr, ptr }
%struct.gmx_sparsematrix_entry = type { i32, float }

@.str.1 = private unnamed_addr constant [136 x i8] c"generated/home/dtcxzyw/WorkSpace/Projects/compilers/llvm-opt-benchmark/bench/gromacs/gromacs/src/gromacs/linearalgebra/sparsematrix.cpp\00", align 1
@.str.8 = private unnamed_addr constant [13 x i8] c"A->data[row]\00", align 1

; Function Attrs: inlinehint mustprogress uwtable
define internal void @_ZL15gmx_srenew_implI22gmx_sparsematrix_entryEvPKcS2_iRPT_m(ptr noundef %0, ptr noundef %1, i32 noundef %2, ptr noundef nonnull align 8 dereferenceable(8) %3, i64 noundef %4) #2 {
  %6 = alloca ptr, align 8
  %7 = alloca ptr, align 8
  %8 = alloca i32, align 4
  %9 = alloca ptr, align 8
  %10 = alloca i64, align 8
  store ptr %0, ptr %6, align 8, !tbaa !23
  store ptr %1, ptr %7, align 8, !tbaa !23
  store i32 %2, ptr %8, align 4, !tbaa !3
  store ptr %3, ptr %9, align 8, !tbaa !35
  store i64 %4, ptr %10, align 8, !tbaa !27
  %11 = load ptr, ptr %6, align 8, !tbaa !23
  %12 = load ptr, ptr %7, align 8, !tbaa !23
  %13 = load i32, ptr %8, align 4, !tbaa !3
  %14 = load ptr, ptr %9, align 8, !tbaa !35
  %15 = load ptr, ptr %14, align 8, !tbaa !19
  %16 = load i64, ptr %10, align 8, !tbaa !27
  %17 = call noundef ptr @_Z12save_reallocPKcS0_iPvmm(ptr noundef %11, ptr noundef %12, i32 noundef %13, ptr noundef %15, i64 noundef %16, i64 noundef 8)
  %18 = load ptr, ptr %9, align 8, !tbaa !35
  store ptr %17, ptr %18, align 8, !tbaa !19
  ret void
}

; Function Attrs: inlinehint mustprogress uwtable
define internal void @_ZL13gmx_snew_implI22gmx_sparsematrix_entryEvPKcS2_iRPT_m(ptr noundef %0, ptr noundef %1, i32 noundef %2, ptr noundef nonnull align 8 dereferenceable(8) %3, i64 noundef %4) #2 {
  %6 = alloca ptr, align 8
  %7 = alloca ptr, align 8
  %8 = alloca i32, align 4
  %9 = alloca ptr, align 8
  %10 = alloca i64, align 8
  store ptr %0, ptr %6, align 8, !tbaa !23
  store ptr %1, ptr %7, align 8, !tbaa !23
  store i32 %2, ptr %8, align 4, !tbaa !3
  store ptr %3, ptr %9, align 8, !tbaa !35
  store i64 %4, ptr %10, align 8, !tbaa !27
  %11 = load ptr, ptr %6, align 8, !tbaa !23
  %12 = load ptr, ptr %7, align 8, !tbaa !23
  %13 = load i32, ptr %8, align 4, !tbaa !3
  %14 = load i64, ptr %10, align 8, !tbaa !27
  %15 = call noundef ptr @_Z11save_callocPKcS0_imm(ptr noundef %11, ptr noundef %12, i32 noundef %13, i64 noundef %14, i64 noundef 8)
  %16 = load ptr, ptr %9, align 8, !tbaa !35
  store ptr %15, ptr %16, align 8, !tbaa !19
  ret void
}

; Function Attrs: mustprogress uwtable
define void @_Z32gmx_sparsematrix_increment_valueP16gmx_sparsematrixiif(ptr noundef %0, i32 noundef %1, i32 noundef %2, float noundef %3) #0 {
  %5 = alloca ptr, align 8
  %6 = alloca i32, align 4
  %7 = alloca i32, align 4
  %8 = alloca float, align 4
  %9 = alloca i8, align 1
  %10 = alloca i32, align 4
  store ptr %0, ptr %5, align 8, !tbaa !7
  store i32 %1, ptr %6, align 4, !tbaa !3
  store i32 %2, ptr %7, align 4, !tbaa !3
  store float %3, ptr %8, align 4, !tbaa !49
  call void @llvm.lifetime.start.p0(i64 1, ptr %9) #7
  store i8 0, ptr %9, align 1, !tbaa !48
  call void @llvm.lifetime.start.p0(i64 4, ptr %10) #7
  store i32 0, ptr %10, align 4, !tbaa !3
  br label %11

11:                                               ; preds = %58, %4
  %12 = load i32, ptr %10, align 4, !tbaa !3
  %13 = load ptr, ptr %5, align 8, !tbaa !7
  %14 = getelementptr inbounds nuw %struct.gmx_sparsematrix, ptr %13, i32 0, i32 2
  %15 = load ptr, ptr %14, align 8, !tbaa !16
  %16 = load i32, ptr %6, align 4, !tbaa !3
  %17 = sext i32 %16 to i64
  %18 = getelementptr inbounds i32, ptr %15, i64 %17
  %19 = load i32, ptr %18, align 4, !tbaa !3
  %20 = icmp slt i32 %12, %19
  br i1 %20, label %21, label %25

21:                                               ; preds = %11
  %22 = load i8, ptr %9, align 1, !tbaa !48, !range !50, !noundef !51
  %23 = trunc i8 %22 to i1
  %24 = xor i1 %23, true
  br label %25

25:                                               ; preds = %21, %11
  %26 = phi i1 [ false, %11 ], [ %24, %21 ]
  br i1 %26, label %27, label %61

27:                                               ; preds = %25
  %28 = load ptr, ptr %5, align 8, !tbaa !7
  %29 = getelementptr inbounds nuw %struct.gmx_sparsematrix, ptr %28, i32 0, i32 4
  %30 = load ptr, ptr %29, align 8, !tbaa !18
  %31 = load i32, ptr %6, align 4, !tbaa !3
  %32 = sext i32 %31 to i64
  %33 = getelementptr inbounds ptr, ptr %30, i64 %32
  %34 = load ptr, ptr %33, align 8, !tbaa !19
  %35 = load i32, ptr %10, align 4, !tbaa !3
  %36 = sext i32 %35 to i64
  %37 = getelementptr inbounds %struct.gmx_sparsematrix_entry, ptr %34, i64 %36
  %38 = getelementptr inbounds nuw %struct.gmx_sparsematrix_entry, ptr %37, i32 0, i32 0
  %39 = load i32, ptr %38, align 4, !tbaa !40
  %40 = load i32, ptr %7, align 4, !tbaa !3
  %41 = icmp eq i32 %39, %40
  br i1 %41, label %42, label %57

42:                                               ; preds = %27
  store i8 1, ptr %9, align 1, !tbaa !48
  %43 = load float, ptr %8, align 4, !tbaa !49
  %44 = load ptr, ptr %5, align 8, !tbaa !7
  %45 = getelementptr inbounds nuw %struct.gmx_sparsematrix, ptr %44, i32 0, i32 4
  %46 = load ptr, ptr %45, align 8, !tbaa !18
  %47 = load i32, ptr %6, align 4, !tbaa !3
  %48 = sext i32 %47 to i64
  %49 = getelementptr inbounds ptr, ptr %46, i64 %48
  %50 = load ptr, ptr %49, align 8, !tbaa !19
  %51 = load i32, ptr %10, align 4, !tbaa !3
  %52 = sext i32 %51 to i64
  %53 = getelementptr inbounds %struct.gmx_sparsematrix_entry, ptr %50, i64 %52
  %54 = getelementptr inbounds nuw %struct.gmx_sparsematrix_entry, ptr %53, i32 0, i32 1
  %55 = load float, ptr %54, align 4, !tbaa !44
  %56 = fadd float %55, %43
  store float %56, ptr %54, align 4, !tbaa !44
  br label %57

57:                                               ; preds = %42, %27
  br label %58

58:                                               ; preds = %57
  %59 = load i32, ptr %10, align 4, !tbaa !3
  %60 = add nsw i32 %59, 1
  store i32 %60, ptr %10, align 4, !tbaa !3
  br label %11, !llvm.loop !53

61:                                               ; preds = %25
  %62 = load i8, ptr %9, align 1, !tbaa !48, !range !50, !noundef !51
  %63 = trunc i8 %62 to i1
  br i1 %63, label %173, label %64

64:                                               ; preds = %61
  %65 = load ptr, ptr %5, align 8, !tbaa !7
  %66 = getelementptr inbounds nuw %struct.gmx_sparsematrix, ptr %65, i32 0, i32 2
  %67 = load ptr, ptr %66, align 8, !tbaa !16
  %68 = load i32, ptr %6, align 4, !tbaa !3
  %69 = sext i32 %68 to i64
  %70 = getelementptr inbounds i32, ptr %67, i64 %69
  %71 = load i32, ptr %70, align 4, !tbaa !3
  %72 = load ptr, ptr %5, align 8, !tbaa !7
  %73 = getelementptr inbounds nuw %struct.gmx_sparsematrix, ptr %72, i32 0, i32 3
  %74 = load ptr, ptr %73, align 8, !tbaa !17
  %75 = load i32, ptr %6, align 4, !tbaa !3
  %76 = sext i32 %75 to i64
  %77 = getelementptr inbounds i32, ptr %74, i64 %76
  %78 = load i32, ptr %77, align 4, !tbaa !3
  %79 = icmp eq i32 %71, %78
  br i1 %79, label %80, label %128

80:                                               ; preds = %64
  %81 = load ptr, ptr %5, align 8, !tbaa !7
  %82 = getelementptr inbounds nuw %struct.gmx_sparsematrix, ptr %81, i32 0, i32 3
  %83 = load ptr, ptr %82, align 8, !tbaa !17
  %84 = load i32, ptr %6, align 4, !tbaa !3
  %85 = sext i32 %84 to i64
  %86 = getelementptr inbounds i32, ptr %83, i64 %85
  %87 = load i32, ptr %86, align 4, !tbaa !3
  %88 = add nsw i32 %87, 100
  store i32 %88, ptr %86, align 4, !tbaa !3
  %89 = load ptr, ptr %5, align 8, !tbaa !7
  %90 = getelementptr inbounds nuw %struct.gmx_sparsematrix, ptr %89, i32 0, i32 4
  %91 = load ptr, ptr %90, align 8, !tbaa !18
  %92 = load i32, ptr %6, align 4, !tbaa !3
  %93 = sext i32 %92 to i64
  %94 = getelementptr inbounds ptr, ptr %91, i64 %93
  %95 = load ptr, ptr %94, align 8, !tbaa !19
  %96 = icmp eq ptr %95, null
  br i1 %96, label %97, label %112

97:                                               ; preds = %80
  %98 = load ptr, ptr %5, align 8, !tbaa !7
  %99 = getelementptr inbounds nuw %struct.gmx_sparsematrix, ptr %98, i32 0, i32 4
  %100 = load ptr, ptr %99, align 8, !tbaa !18
  %101 = load i32, ptr %6, align 4, !tbaa !3
  %102 = sext i32 %101 to i64
  %103 = getelementptr inbounds ptr, ptr %100, i64 %102
  %104 = load ptr, ptr %5, align 8, !tbaa !7
  %105 = getelementptr inbounds nuw %struct.gmx_sparsematrix, ptr %104, i32 0, i32 3
  %106 = load ptr, ptr %105, align 8, !tbaa !17
  %107 = load i32, ptr %6, align 4, !tbaa !3
  %108 = sext i32 %107 to i64
  %109 = getelementptr inbounds i32, ptr %106, i64 %108
  %110 = load i32, ptr %109, align 4, !tbaa !3
  %111 = sext i32 %110 to i64
  call void @_ZL13gmx_snew_implI22gmx_sparsematrix_entryEvPKcS2_iRPT_m(ptr noundef @.str.8, ptr noundef @.str.1, i32 noundef 174, ptr noundef nonnull align 8 dereferenceable(8) %103, i64 noundef %111)
  br label %127

112:                                              ; preds = %80
  %113 = load ptr, ptr %5, align 8, !tbaa !7
  %114 = getelementptr inbounds nuw %struct.gmx_sparsematrix, ptr %113, i32 0, i32 4
  %115 = load ptr, ptr %114, align 8, !tbaa !18
  %116 = load i32, ptr %6, align 4, !tbaa !3
  %117 = sext i32 %116 to i64
  %118 = getelementptr inbounds ptr, ptr %115, i64 %117
  %119 = load ptr, ptr %5, align 8, !tbaa !7
  %120 = getelementptr inbounds nuw %struct.gmx_sparsematrix, ptr %119, i32 0, i32 3
  %121 = load ptr, ptr %120, align 8, !tbaa !17
  %122 = load i32, ptr %6, align 4, !tbaa !3
  %123 = sext i32 %122 to i64
  %124 = getelementptr inbounds i32, ptr %121, i64 %123
  %125 = load i32, ptr %124, align 4, !tbaa !3
  %126 = sext i32 %125 to i64
  call void @_ZL15gmx_srenew_implI22gmx_sparsematrix_entryEvPKcS2_iRPT_m(ptr noundef @.str.8, ptr noundef @.str.1, i32 noundef 178, ptr noundef nonnull align 8 dereferenceable(8) %118, i64 noundef %126)
  br label %127

127:                                              ; preds = %112, %97
  br label %128

128:                                              ; preds = %127, %64
  %129 = load i32, ptr %7, align 4, !tbaa !3
  %130 = load ptr, ptr %5, align 8, !tbaa !7
  %131 = getelementptr inbounds nuw %struct.gmx_sparsematrix, ptr %130, i32 0, i32 4
  %132 = load ptr, ptr %131, align 8, !tbaa !18
  %133 = load i32, ptr %6, align 4, !tbaa !3
  %134 = sext i32 %133 to i64
  %135 = getelementptr inbounds ptr, ptr %132, i64 %134
  %136 = load ptr, ptr %135, align 8, !tbaa !19
  %137 = load ptr, ptr %5, align 8, !tbaa !7
  %138 = getelementptr inbounds nuw %struct.gmx_sparsematrix, ptr %137, i32 0, i32 2
  %139 = load ptr, ptr %138, align 8, !tbaa !16
  %140 = load i32, ptr %6, align 4, !tbaa !3
  %141 = sext i32 %140 to i64
  %142 = getelementptr inbounds i32, ptr %139, i64 %141
  %143 = load i32, ptr %142, align 4, !tbaa !3
  %144 = sext i32 %143 to i64
  %145 = getelementptr inbounds %struct.gmx_sparsematrix_entry, ptr %136, i64 %144
  %146 = getelementptr inbounds nuw %struct.gmx_sparsematrix_entry, ptr %145, i32 0, i32 0
  store i32 %129, ptr %146, align 4, !tbaa !40
  %147 = load float, ptr %8, align 4, !tbaa !49
  %148 = load ptr, ptr %5, align 8, !tbaa !7
  %149 = getelementptr inbounds nuw %struct.gmx_sparsematrix, ptr %148, i32 0, i32 4
  %150 = load ptr, ptr %149, align 8, !tbaa !18
  %151 = load i32, ptr %6, align 4, !tbaa !3
  %152 = sext i32 %151 to i64
  %153 = getelementptr inbounds ptr, ptr %150, i64 %152
  %154 = load ptr, ptr %153, align 8, !tbaa !19
  %155 = load ptr, ptr %5, align 8, !tbaa !7
  %156 = getelementptr inbounds nuw %struct.gmx_sparsematrix, ptr %155, i32 0, i32 2
  %157 = load ptr, ptr %156, align 8, !tbaa !16
  %158 = load i32, ptr %6, align 4, !tbaa !3
  %159 = sext i32 %158 to i64
  %160 = getelementptr inbounds i32, ptr %157, i64 %159
  %161 = load i32, ptr %160, align 4, !tbaa !3
  %162 = sext i32 %161 to i64
  %163 = getelementptr inbounds %struct.gmx_sparsematrix_entry, ptr %154, i64 %162
  %164 = getelementptr inbounds nuw %struct.gmx_sparsematrix_entry, ptr %163, i32 0, i32 1
  store float %147, ptr %164, align 4, !tbaa !44
  %165 = load ptr, ptr %5, align 8, !tbaa !7
  %166 = getelementptr inbounds nuw %struct.gmx_sparsematrix, ptr %165, i32 0, i32 2
  %167 = load ptr, ptr %166, align 8, !tbaa !16
  %168 = load i32, ptr %6, align 4, !tbaa !3
  %169 = sext i32 %168 to i64
  %170 = getelementptr inbounds i32, ptr %167, i64 %169
  %171 = load i32, ptr %170, align 4, !tbaa !3
  %172 = add nsw i32 %171, 1
  store i32 %172, ptr %170, align 4, !tbaa !3
  br label %173

173:                                              ; preds = %128, %61
  call void @llvm.lifetime.end.p0(i64 4, ptr %10) #7
  call void @llvm.lifetime.end.p0(i64 1, ptr %9) #7
  ret void
}