; Function Attrs: mustprogress uwtable
define void @_Z32gmx_sparsematrix_increment_valueP16gmx_sparsematrixiif(ptr noundef readonly captures(none) %0, i32 noundef %1, i32 noundef %2, float noundef %3) local_unnamed_addr #0 {
  %5 = getelementptr inbounds nuw i8, ptr %0, i64 8
  %6 = load ptr, ptr %5, align 8, !tbaa !15
  %7 = sext i32 %1 to i64
  %8 = getelementptr inbounds i32, ptr %6, i64 %7
  %9 = load i32, ptr %8, align 4, !tbaa !17
  %10 = icmp slt i32 %9, 1
  br i1 %10, label %.loopexit, label %.lr.ph

.lr.ph:                                           ; preds = %4
  %11 = getelementptr inbounds nuw i8, ptr %0, i64 24
  %12 = load ptr, ptr %11, align 8, !tbaa !22
  %13 = getelementptr inbounds ptr, ptr %12, i64 %7
  %14 = load ptr, ptr %13, align 8, !tbaa !18
  %15 = zext nneg i32 %9 to i64
  br label %16

16:                                               ; preds = %.lr.ph, %20
  %indvars.iv = phi i64 [ 0, %.lr.ph ], [ %indvars.iv.next, %20 ]
  %17 = getelementptr inbounds nuw %struct.gmx_sparsematrix_entry, ptr %14, i64 %indvars.iv
  %18 = load i32, ptr %17, align 4, !tbaa !25
  %19 = icmp eq i32 %18, %2
  br i1 %19, label %._crit_edge, label %20

20:                                               ; preds = %16
  %indvars.iv.next = add nuw nsw i64 %indvars.iv, 1
  %.not = icmp samesign ult i64 %indvars.iv.next, %15
  br i1 %.not, label %16, label %.loopexit, !llvm.loop !34

._crit_edge:                                      ; preds = %16
  %21 = getelementptr inbounds nuw %struct.gmx_sparsematrix_entry, ptr %14, i64 %indvars.iv, i32 1
  %22 = load float, ptr %21, align 4, !tbaa !29
  %23 = fadd float %3, %22
  store float %23, ptr %21, align 4, !tbaa !29
  br label %55

.loopexit:                                        ; preds = %20, %4
  %24 = getelementptr inbounds nuw i8, ptr %0, i64 16
  %25 = load ptr, ptr %24, align 8, !tbaa !16
  %26 = getelementptr inbounds i32, ptr %25, i64 %7
  %27 = load i32, ptr %26, align 4, !tbaa !17
  %28 = icmp eq i32 %9, %27
  br i1 %28, label %29, label %41

29:                                               ; preds = %.loopexit
  %30 = add nsw i32 %9, 100
  store i32 %30, ptr %26, align 4, !tbaa !17
  %31 = getelementptr inbounds nuw i8, ptr %0, i64 24
  %32 = load ptr, ptr %31, align 8, !tbaa !22
  %33 = getelementptr inbounds ptr, ptr %32, i64 %7
  %34 = load ptr, ptr %33, align 8, !tbaa !18
  %35 = icmp eq ptr %34, null
  %36 = sext i32 %30 to i64
  br i1 %35, label %37, label %39

37:                                               ; preds = %29
  %38 = tail call noundef ptr @_Z11save_callocPKcS0_imm(ptr noundef nonnull @.str.8, ptr noundef nonnull @.str.1, i32 noundef 174, i64 noundef range(i64 -2147483648, 2147483648) %36, i64 noundef 8)
  br label %.sink.split

39:                                               ; preds = %29
  %40 = tail call noundef ptr @_Z12save_reallocPKcS0_iPvmm(ptr noundef nonnull @.str.8, ptr noundef nonnull @.str.1, i32 noundef 178, ptr noundef nonnull %34, i64 noundef range(i64 -2147483648, 2147483648) %36, i64 noundef 8)
  br label %.sink.split

.sink.split:                                      ; preds = %39, %37
  %.sink = phi ptr [ %38, %37 ], [ %40, %39 ]
  store ptr %.sink, ptr %33, align 8, !tbaa !18
  br label %41

41:                                               ; preds = %.sink.split, %.loopexit
  %42 = getelementptr inbounds nuw i8, ptr %0, i64 24
  %43 = load ptr, ptr %42, align 8, !tbaa !22
  %44 = getelementptr inbounds ptr, ptr %43, i64 %7
  %45 = load ptr, ptr %44, align 8, !tbaa !18
  %46 = load ptr, ptr %5, align 8, !tbaa !15
  %47 = getelementptr inbounds i32, ptr %46, i64 %7
  %48 = load i32, ptr %47, align 4, !tbaa !17
  %49 = sext i32 %48 to i64
  %50 = getelementptr inbounds %struct.gmx_sparsematrix_entry, ptr %45, i64 %49
  store i32 %2, ptr %50, align 4, !tbaa !25
  %51 = load i32, ptr %47, align 4, !tbaa !17
  %52 = sext i32 %51 to i64
  %53 = getelementptr inbounds %struct.gmx_sparsematrix_entry, ptr %45, i64 %52, i32 1
  store float %3, ptr %53, align 4, !tbaa !29
  %54 = add nsw i32 %51, 1
  store i32 %54, ptr %47, align 4, !tbaa !17
  br label %55

55:                                               ; preds = %._crit_edge, %41
  ret void
}